; Function Attrs: mustprogress uwtable
define void @_ZN7rocksdb16WritePreparedTxn21RebuildFromWriteBatchEPNS_10WriteBatchE(ptr dead_on_unwind noalias writable sret(%"class.rocksdb::Status") align 8 %0, ptr noundef nonnull align 8 dereferenceable(664) %1, ptr noundef %2) unnamed_addr #4 align 2 personality ptr @__gxx_personality_v0 {
  tail call void @_ZN7rocksdb19TransactionBaseImpl21RebuildFromWriteBatchEPNS_10WriteBatchE(ptr dead_on_unwind writable sret(%"class.rocksdb::Status") align 8 %0, ptr noundef nonnull align 8 dereferenceable(400) %1, ptr noundef %2)
  %4 = load ptr, ptr %1, align 8, !tbaa !18
  %5 = getelementptr inbounds nuw i8, ptr %4, i64 576
  %6 = load ptr, ptr %5, align 8
  %7 = invoke noundef ptr %6(ptr noundef nonnull align 8 dereferenceable(400) %1)
          to label %8 unwind label %12

8:                                                ; preds = %3
  %9 = invoke noundef i64 @_ZN7rocksdb19WriteBatchWithIndex11SubBatchCntEv(ptr noundef nonnull align 8 dereferenceable(16) %7)
          to label %10 unwind label %12

10:                                               ; preds = %8
  %11 = getelementptr inbounds nuw i8, ptr %1, i64 656
  store i64 %9, ptr %11, align 8, !tbaa !104
  ret void

12:                                               ; preds = %8, %3
  %13 = landingpad { ptr, i32 }
          cleanup
  %14 = getelementptr inbounds nuw i8, ptr %0, i64 8
  %15 = load ptr, ptr %14, align 8, !tbaa !118
  %.not.i.i = icmp eq ptr %15, null
  br i1 %.not.i.i, label %_ZN7rocksdb6StatusD2Ev.exit, label %_ZNKSt14default_deleteIA_KcEclIS0_EENSt9enable_ifIXsr14is_convertibleIPA_T_PS1_EE5valueEvE4typeEPS5_.exit.i.i

_ZNKSt14default_deleteIA_KcEclIS0_EENSt9enable_ifIXsr14is_convertibleIPA_T_PS1_EE5valueEvE4typeEPS5_.exit.i.i: ; preds = %12
  tail call void @_ZdaPv(ptr noundef nonnull %15) #25
  br label %_ZN7rocksdb6StatusD2Ev.exit

_ZN7rocksdb6StatusD2Ev.exit:                      ; preds = %12, %_ZNKSt14default_deleteIA_KcEclIS0_EENSt9enable_ifIXsr14is_convertibleIPA_T_PS1_EE5valueEvE4typeEPS5_.exit.i.i
  store ptr null, ptr %14, align 8, !tbaa !118
  resume { ptr, i32 } %13
}